; ModuleID = '5/1100.c'
source_filename = "5/1100.c"
target datalayout = "e-m:e-p270:32:32-p271:32:32-p272:64:64-i64:64-f80:128-n8:16:32:64-S128"
target triple = "x86_64-pc-linux-gnu"

@.str = private unnamed_addr constant [4 x i8] c"%lf\00", align 1
@.str.1 = private unnamed_addr constant [6 x i8] c"error\00", align 1
@.str.2 = private unnamed_addr constant [4 x i8] c"yes\00", align 1
@.str.3 = private unnamed_addr constant [3 x i8] c"no\00", align 1

; Function Attrs: noinline nounwind uwtable
define dso_local i32 @main() #0 {
  %1 = alloca i32, align 4
  %2 = alloca double, align 8
  %3 = alloca i32, align 4
  %4 = alloca i32, align 4
  %5 = alloca i32, align 4
  %6 = alloca i32, align 4
  %7 = alloca [501 x i8], align 16
  %8 = alloca [501 x i8], align 16
  %9 = alloca [501 x i8], align 16
  store i32 0, i32* %1, align 4
  store i32 0, i32* %3, align 4
  %10 = call i32 (i8*, ...) @__isoc99_scanf(i8* getelementptr inbounds ([4 x i8], [4 x i8]* @.str, i64 0, i64 0), double* %2)
  %11 = getelementptr inbounds [501 x i8], [501 x i8]* %7, i64 0, i64 0
  %12 = call i32 (i8*, ...) bitcast (i32 (...)* @gets to i32 (i8*, ...)*)(i8* %11)
  %13 = getelementptr inbounds [501 x i8], [501 x i8]* %8, i64 0, i64 0
  %14 = call i32 (i8*, ...) bitcast (i32 (...)* @gets to i32 (i8*, ...)*)(i8* %13)
  %15 = getelementptr inbounds [501 x i8], [501 x i8]* %9, i64 0, i64 0
  %16 = call i32 (i8*, ...) bitcast (i32 (...)* @gets to i32 (i8*, ...)*)(i8* %15)
  %17 = getelementptr inbounds [501 x i8], [501 x i8]* %8, i64 0, i64 0
  %18 = call i64 @strlen(i8* %17) #3
  %19 = trunc i64 %18 to i32
  store i32 %19, i32* %4, align 4
  %20 = getelementptr inbounds [501 x i8], [501 x i8]* %9, i64 0, i64 0
  %21 = call i64 @strlen(i8* %20) #3
  %22 = trunc i64 %21 to i32
  store i32 %22, i32* %5, align 4
  store i32 0, i32* %6, align 4
  br label %23

23:                                               ; preds = %57, %0
  %24 = load i32, i32* %6, align 4
  %25 = load i32, i32* %4, align 4
  %26 = icmp slt i32 %24, %25
  br i1 %26, label %27, label %60

27:                                               ; preds = %23
  %28 = load i32, i32* %6, align 4
  %29 = sext i32 %28 to i64
  %30 = getelementptr inbounds [501 x i8], [501 x i8]* %8, i64 0, i64 %29
  %31 = load i8, i8* %30, align 1
  %32 = sext i8 %31 to i32
  %33 = icmp ne i32 %32, 65
  br i1 %33, label %34, label %56

34:                                               ; preds = %27
  %35 = load i32, i32* %6, align 4
  %36 = sext i32 %35 to i64
  %37 = getelementptr inbounds [501 x i8], [501 x i8]* %8, i64 0, i64 %36
  %38 = load i8, i8* %37, align 1
  %39 = sext i8 %38 to i32
  %40 = icmp ne i32 %39, 84
  br i1 %40, label %41, label %56

41:                                               ; preds = %34
  %42 = load i32, i32* %6, align 4
  %43 = sext i32 %42 to i64
  %44 = getelementptr inbounds [501 x i8], [501 x i8]* %8, i64 0, i64 %43
  %45 = load i8, i8* %44, align 1
  %46 = sext i8 %45 to i32
  %47 = icmp ne i32 %46, 67
  br i1 %47, label %48, label %56

48:                                               ; preds = %41
  %49 = load i32, i32* %6, align 4
  %50 = sext i32 %49 to i64
  %51 = getelementptr inbounds [501 x i8], [501 x i8]* %8, i64 0, i64 %50
  %52 = load i8, i8* %51, align 1
  %53 = sext i8 %52 to i32
  %54 = icmp ne i32 %53, 71
  br i1 %54, label %55, label %56

55:                                               ; preds = %48
  store i32 1, i32* %4, align 4
  br label %60

56:                                               ; preds = %48, %41, %34, %27
  br label %57

57:                                               ; preds = %56
  %58 = load i32, i32* %6, align 4
  %59 = add nsw i32 %58, 1
  store i32 %59, i32* %6, align 4
  br label %23

60:                                               ; preds = %55, %23
  store i32 0, i32* %6, align 4
  br label %61

61:                                               ; preds = %95, %60
  %62 = load i32, i32* %6, align 4
  %63 = load i32, i32* %5, align 4
  %64 = icmp slt i32 %62, %63
  br i1 %64, label %65, label %98

65:                                               ; preds = %61
  %66 = load i32, i32* %6, align 4
  %67 = sext i32 %66 to i64
  %68 = getelementptr inbounds [501 x i8], [501 x i8]* %9, i64 0, i64 %67
  %69 = load i8, i8* %68, align 1
  %70 = sext i8 %69 to i32
  %71 = icmp ne i32 %70, 65
  br i1 %71, label %72, label %94

72:                                               ; preds = %65
  %73 = load i32, i32* %6, align 4
  %74 = sext i32 %73 to i64
  %75 = getelementptr inbounds [501 x i8], [501 x i8]* %9, i64 0, i64 %74
  %76 = load i8, i8* %75, align 1
  %77 = sext i8 %76 to i32
  %78 = icmp ne i32 %77, 84
  br i1 %78, label %79, label %94

79:                                               ; preds = %72
  %80 = load i32, i32* %6, align 4
  %81 = sext i32 %80 to i64
  %82 = getelementptr inbounds [501 x i8], [501 x i8]* %9, i64 0, i64 %81
  %83 = load i8, i8* %82, align 1
  %84 = sext i8 %83 to i32
  %85 = icmp ne i32 %84, 67
  br i1 %85, label %86, label %94

86:                                               ; preds = %79
  %87 = load i32, i32* %6, align 4
  %88 = sext i32 %87 to i64
  %89 = getelementptr inbounds [501 x i8], [501 x i8]* %9, i64 0, i64 %88
  %90 = load i8, i8* %89, align 1
  %91 = sext i8 %90 to i32
  %92 = icmp ne i32 %91, 71
  br i1 %92, label %93, label %94

93:                                               ; preds = %86
  store i32 2, i32* %5, align 4
  br label %98

94:                                               ; preds = %86, %79, %72, %65
  br label %95

95:                                               ; preds = %94
  %96 = load i32, i32* %6, align 4
  %97 = add nsw i32 %96, 1
  store i32 %97, i32* %6, align 4
  br label %61

98:                                               ; preds = %93, %61
  %99 = load i32, i32* %4, align 4
  %100 = load i32, i32* %5, align 4
  %101 = icmp ne i32 %99, %100
  br i1 %101, label %102, label %104

102:                                              ; preds = %98
  %103 = call i32 (i8*, ...) @printf(i8* getelementptr inbounds ([6 x i8], [6 x i8]* @.str.1, i64 0, i64 0))
  br label %142

104:                                              ; preds = %98
  store i32 0, i32* %6, align 4
  br label %105

105:                                              ; preds = %125, %104
  %106 = load i32, i32* %6, align 4
  %107 = load i32, i32* %4, align 4
  %108 = icmp slt i32 %106, %107
  br i1 %108, label %109, label %128

109:                                              ; preds = %105
  %110 = load i32, i32* %6, align 4
  %111 = sext i32 %110 to i64
  %112 = getelementptr inbounds [501 x i8], [501 x i8]* %8, i64 0, i64 %111
  %113 = load i8, i8* %112, align 1
  %114 = sext i8 %113 to i32
  %115 = load i32, i32* %6, align 4
  %116 = sext i32 %115 to i64
  %117 = getelementptr inbounds [501 x i8], [501 x i8]* %9, i64 0, i64 %116
  %118 = load i8, i8* %117, align 1
  %119 = sext i8 %118 to i32
  %120 = icmp eq i32 %114, %119
  br i1 %120, label %121, label %124

121:                                              ; preds = %109
  %122 = load i32, i32* %3, align 4
  %123 = add nsw i32 %122, 1
  store i32 %123, i32* %3, align 4
  br label %124

124:                                              ; preds = %121, %109
  br label %125

125:                                              ; preds = %124
  %126 = load i32, i32* %6, align 4
  %127 = add nsw i32 %126, 1
  store i32 %127, i32* %6, align 4
  br label %105

128:                                              ; preds = %105
  %129 = load i32, i32* %3, align 4
  %130 = sitofp i32 %129 to double
  %131 = fmul double 1.000000e+00, %130
  %132 = load i32, i32* %4, align 4
  %133 = sitofp i32 %132 to double
  %134 = fdiv double %131, %133
  %135 = load double, double* %2, align 8
  %136 = fcmp oge double %134, %135
  br i1 %136, label %137, label %139

137:                                              ; preds = %128
  %138 = call i32 (i8*, ...) @printf(i8* getelementptr inbounds ([4 x i8], [4 x i8]* @.str.2, i64 0, i64 0))
  br label %141

139:                                              ; preds = %128
  %140 = call i32 (i8*, ...) @printf(i8* getelementptr inbounds ([3 x i8], [3 x i8]* @.str.3, i64 0, i64 0))
  br label %141

141:                                              ; preds = %139, %137
  br label %142

142:                                              ; preds = %141, %102
  ret i32 0
}

declare dso_local i32 @__isoc99_scanf(i8*, ...) #1

declare dso_local i32 @gets(...) #1

; Function Attrs: nounwind readonly
declare dso_local i64 @strlen(i8*) #2

declare dso_local i32 @printf(i8*, ...) #1


!llvm.module.flags = !{!0}
!llvm.ident = !{!1}

!0 = !{i32 1, !"wchar_size", i32 4}
!1 = !{!"clang version 10.0.0-4ubuntu1 "}
